target datalayout = "e-m:e-p270:32:32-p271:32:32-p272:64:64-i64:64-i128:128-f80:128-n8:16:32:64-S128"
target triple = "x86_64-unknown-linux-gnu"

%struct.bxt_ddi_phy_info = type { i8, i32, i32, i32, [2 x %struct.anon] }
%struct.anon = type { i32 }

@.str = private unnamed_addr constant [33 x i8] c"%s %s: PHY not found for PORT %c\00", align 1
@.str.1 = private unnamed_addr constant [46 x i8] c"drivers/gpu/drm/i915/display/intel_dpio_phy.c\00", align 1

; Function Attrs: fn_ret_thunk_extern nounwind null_pointer_is_valid
define dso_local void @bxt_port_to_phy_channel(ptr nocapture noundef readonly %0, i32 noundef %1, ptr nocapture noundef writeonly %2, ptr nocapture noundef writeonly %3) local_unnamed_addr #0 align 16 {
  %5 = getelementptr inbounds i8, ptr %0, i64 7184
  %6 = load i32, ptr %5, align 4
  %7 = and i32 %6, 268435456
  %8 = icmp eq i32 %7, 0
  %9 = select i1 %8, i32 2, i32 3
  %10 = select i1 %8, ptr @bxt_ddi_phy_info, ptr @glk_ddi_phy_info
  br label %11

11:                                               ; preds = %25, %4
  %12 = phi i32 [ 0, %4 ], [ %26, %25 ]
  %13 = zext nneg i32 %12 to i64
  %14 = getelementptr %struct.bxt_ddi_phy_info, ptr %10, i64 %13
  %15 = getelementptr inbounds i8, ptr %14, i64 16
  %16 = load i32, ptr %15, align 8
  %17 = icmp eq i32 %16, %1
  br i1 %17, label %41, label %18

18:                                               ; preds = %11
  %19 = load i8, ptr %14, align 8, !range !5, !noundef !6
  %20 = icmp eq i8 %19, 0
  br i1 %20, label %25, label %21

21:                                               ; preds = %18
  %22 = getelementptr i8, ptr %14, i64 20
  %23 = load i32, ptr %22, align 4
  %24 = icmp eq i32 %23, %1
  br i1 %24, label %41, label %25

25:                                               ; preds = %21, %18
  %26 = add nuw nsw i32 %12, 1
  %27 = icmp eq i32 %26, %9
  br i1 %27, label %28, label %11, !llvm.loop !7

28:                                               ; preds = %25
  tail call void asm sideeffect "897: nop\0A\09.pushsection .discard.instr_begin\0A\09.long 897b - .\0A\09.popsection\0A\09", "i,~{dirflag},~{fpsr},~{flags}"(i32 897) #6, !srcloc !10
  %29 = getelementptr inbounds i8, ptr %0, i64 8
  %30 = load ptr, ptr %29, align 8
  %31 = tail call ptr @dev_driver_string(ptr noundef %30) #6
  %32 = load ptr, ptr %29, align 8
  %33 = getelementptr inbounds i8, ptr %32, i64 80
  %34 = load ptr, ptr %33, align 8
  %35 = icmp eq ptr %34, null
  br i1 %35, label %36, label %38

36:                                               ; preds = %28
  %37 = load ptr, ptr %32, align 8
  br label %38

38:                                               ; preds = %36, %28
  %39 = phi ptr [ %37, %36 ], [ %34, %28 ]
  %40 = add i32 %1, 65
  tail call void (ptr, ...) @__warn_printk(ptr noundef nonnull @.str, ptr noundef %31, ptr noundef %39, i32 noundef %40) #6
  tail call void asm sideeffect "898: nop\0A\09.pushsection .discard.instr_begin\0A\09.long 898b - .\0A\09.popsection\0A\09", "i,~{dirflag},~{fpsr},~{flags}"(i32 898) #6, !srcloc !11
  tail call void asm sideeffect "1:\09.byte 0x0f, 0x0b\0A.pushsection __bug_table,\22aw\22\0A2:\09.long 1b - .\09# bug_entry::bug_addr\0A\09.long ${0:c} - .\09# bug_entry::file\0A\09.word ${1:c}\09# bug_entry::line\0A\09.word ${2:c}\09# bug_entry::flags\0A\09.org 2b+${3:c}\0A.popsection\0A998:\0A\09.pushsection .discard.reachable\0A\09.long 998b\0A\09.popsection\0A\09", "i,i,i,i,~{dirflag},~{fpsr},~{flags}"(ptr nonnull @.str.1, i32 267, i32 2313, i64 12) #6, !srcloc !12
  tail call void asm sideeffect "899: nop\0A\09.pushsection .discard.instr_end\0A\09.long 899b - .\0A\09.popsection\0A\09", "i,~{dirflag},~{fpsr},~{flags}"(i32 899) #6, !srcloc !13
  tail call void asm sideeffect "900: nop\0A\09.pushsection .discard.instr_end\0A\09.long 900b - .\0A\09.popsection\0A\09", "i,~{dirflag},~{fpsr},~{flags}"(i32 900) #6, !srcloc !14
  br label %41

41:                                               ; preds = %38, %21, %11
  %42 = phi i32 [ 0, %38 ], [ %12, %11 ], [ %12, %21 ]
  %43 = phi i32 [ 0, %38 ], [ 1, %21 ], [ 0, %11 ]
  store i32 %42, ptr %2, align 4
  store i32 %43, ptr %3, align 4
  ret void
}

; Function Attrs: fn_ret_thunk_extern nounwind null_pointer_is_valid
define dso_local zeroext i8 @bxt_ddi_phy_get_lane_lat_optim_mask(ptr nocapture noundef readonly %0) local_unnamed_addr #0 align 16 {
  %2 = alloca i32, align 4
  %3 = alloca i32, align 4
  %4 = load ptr, ptr %0, align 8
  %5 = getelementptr inbounds i8, ptr %0, i64 132
  %6 = load i32, ptr %5, align 4
  call void @llvm.lifetime.start.p0(i64 4, ptr nonnull %2) #6
  store i32 0, ptr %2, align 4, !annotation !15
  call void @llvm.lifetime.start.p0(i64 4, ptr nonnull %3) #6
  store i32 0, ptr %3, align 4, !annotation !15
  call void @bxt_port_to_phy_channel(ptr noundef %4, i32 noundef %6, ptr noundef nonnull %2, ptr noundef nonnull %3)
  %7 = load i32, ptr %2, align 4
  %8 = icmp eq i32 %7, 0
  %9 = shl i32 %7, 12
  %10 = add i32 %9, 1445888
  %11 = select i1 %8, i32 442368, i32 %10
  %12 = load i32, ptr %3, align 4
  %13 = shl i32 %12, 10
  %14 = getelementptr inbounds i8, ptr %4, i64 7368
  %15 = getelementptr inbounds i8, ptr %4, i64 7512
  br label %16

16:                                               ; preds = %16, %1
  %17 = phi i64 [ 0, %1 ], [ %37, %16 ]
  %18 = phi i8 [ 0, %1 ], [ %36, %16 ]
  %19 = trunc i64 %17 to i32
  %20 = shl i32 %19, 8
  %21 = and i32 %20, 512
  %22 = trunc i64 %17 to i32
  %23 = shl i32 %22, 7
  %24 = and i32 %23, 128
  %25 = or disjoint i32 %21, %24
  %26 = or disjoint i32 %25, 1336
  %27 = add i32 %26, %13
  %28 = add i32 %27, %11
  %29 = load ptr, ptr %15, align 8
  %30 = tail call i32 %29(ptr noundef %14, i32 %28, i1 noundef zeroext true) #6
  %31 = and i32 %30, 1073741824
  %32 = icmp eq i32 %31, 0
  %33 = shl nuw nsw i64 1, %17
  %34 = trunc i64 %33 to i8
  %35 = select i1 %32, i8 0, i8 %34
  %36 = or i8 %35, %18
  %37 = add nuw nsw i64 %17, 1
  %38 = icmp eq i64 %37, 4
  br i1 %38, label %39, label %16, !llvm.loop !28

39:                                               ; preds = %16
  call void @llvm.lifetime.end.p0(i64 4, ptr nonnull %3) #6
  call void @llvm.lifetime.end.p0(i64 4, ptr nonnull %2) #6
  ret i8 %36
}