; Function Attrs: fn_ret_thunk_extern nounwind null_pointer_is_valid
define dso_local zeroext i8 @bxt_ddi_phy_get_lane_lat_optim_mask(ptr nocapture noundef readonly %0) local_unnamed_addr #0 align 16 {
  %2 = load ptr, ptr %0, align 8
  %3 = getelementptr inbounds i8, ptr %0, i64 132
  %4 = load i32, ptr %3, align 4
  %5 = getelementptr inbounds i8, ptr %2, i64 7184
  %6 = load i32, ptr %5, align 4
  %7 = and i32 %6, 268435456
  %8 = icmp eq i32 %7, 0
  %9 = select i1 %8, i64 2, i64 3
  %10 = select i1 %8, ptr @bxt_ddi_phy_info, ptr @glk_ddi_phy_info
  br label %11

11:                                               ; preds = %23, %1
  %indvars.iv.i = phi i64 [ %indvars.iv.next.i, %23 ], [ 0, %1 ]
  %12 = getelementptr %struct.bxt_ddi_phy_info, ptr %10, i64 %indvars.iv.i
  %13 = getelementptr inbounds i8, ptr %12, i64 16
  %14 = load i32, ptr %13, align 8
  %15 = icmp eq i32 %14, %4
  br i1 %15, label %bxt_port_to_phy_channel.exit, label %16

16:                                               ; preds = %11
  %17 = load i8, ptr %12, align 8, !range !5, !noundef !6
  %18 = icmp eq i8 %17, 0
  br i1 %18, label %23, label %19

19:                                               ; preds = %16
  %20 = getelementptr i8, ptr %12, i64 20
  %21 = load i32, ptr %20, align 4
  %22 = icmp eq i32 %21, %4
  br i1 %22, label %bxt_port_to_phy_channel.exit, label %23

23:                                               ; preds = %19, %16
  %indvars.iv.next.i = add nuw nsw i64 %indvars.iv.i, 1
  %24 = icmp eq i64 %indvars.iv.next.i, %9
  br i1 %24, label %25, label %11, !llvm.loop !7

25:                                               ; preds = %23
  tail call void asm sideeffect "897: nop\0A\09.pushsection .discard.instr_begin\0A\09.long 897b - .\0A\09.popsection\0A\09", "i,~{dirflag},~{fpsr},~{flags}"(i32 897) #6, !srcloc !10
  %26 = getelementptr inbounds i8, ptr %2, i64 8
  %27 = load ptr, ptr %26, align 8
  %28 = tail call ptr @dev_driver_string(ptr noundef %27) #6
  %29 = load ptr, ptr %26, align 8
  %30 = getelementptr inbounds i8, ptr %29, i64 80
  %31 = load ptr, ptr %30, align 8
  %32 = icmp eq ptr %31, null
  br i1 %32, label %33, label %bxt_port_to_phy_channel.exit.thread

33:                                               ; preds = %25
  %34 = load ptr, ptr %29, align 8
  br label %bxt_port_to_phy_channel.exit.thread

bxt_port_to_phy_channel.exit.thread:              ; preds = %25, %33
  %35 = phi ptr [ %34, %33 ], [ %31, %25 ]
  %36 = add i32 %4, 65
  tail call void (ptr, ...) @__warn_printk(ptr noundef nonnull @.str, ptr noundef %28, ptr noundef %35, i32 noundef %36) #6
  tail call void asm sideeffect "898: nop\0A\09.pushsection .discard.instr_begin\0A\09.long 898b - .\0A\09.popsection\0A\09", "i,~{dirflag},~{fpsr},~{flags}"(i32 898) #6, !srcloc !11
  tail call void asm sideeffect "1:\09.byte 0x0f, 0x0b\0A.pushsection __bug_table,\22aw\22\0A2:\09.long 1b - .\09# bug_entry::bug_addr\0A\09.long ${0:c} - .\09# bug_entry::file\0A\09.word ${1:c}\09# bug_entry::line\0A\09.word ${2:c}\09# bug_entry::flags\0A\09.org 2b+${3:c}\0A.popsection\0A998:\0A\09.pushsection .discard.reachable\0A\09.long 998b\0A\09.popsection\0A\09", "i,i,i,i,~{dirflag},~{fpsr},~{flags}"(ptr nonnull @.str.1, i32 267, i32 2313, i64 12) #6, !srcloc !12
  tail call void asm sideeffect "899: nop\0A\09.pushsection .discard.instr_end\0A\09.long 899b - .\0A\09.popsection\0A\09", "i,~{dirflag},~{fpsr},~{flags}"(i32 899) #6, !srcloc !13
  tail call void asm sideeffect "900: nop\0A\09.pushsection .discard.instr_end\0A\09.long 900b - .\0A\09.popsection\0A\09", "i,~{dirflag},~{fpsr},~{flags}"(i32 900) #6, !srcloc !14
  br label %42

bxt_port_to_phy_channel.exit:                     ; preds = %11, %19
  %.ph.i = phi i32 [ 1336, %11 ], [ 2360, %19 ]
  %37 = trunc i64 %indvars.iv.i to i32
  %38 = icmp eq i32 %37, 0
  %39 = shl i32 %37, 12
  %40 = add i32 %39, 1445888
  %spec.select = select i1 %38, i32 442368, i32 %40
  %41 = or disjoint i32 %.ph.i, %spec.select
  br label %42

42:                                               ; preds = %bxt_port_to_phy_channel.exit, %bxt_port_to_phy_channel.exit.thread
  %43 = phi i32 [ 443704, %bxt_port_to_phy_channel.exit.thread ], [ %41, %bxt_port_to_phy_channel.exit ]
  %44 = getelementptr inbounds i8, ptr %2, i64 7368
  %45 = getelementptr inbounds i8, ptr %2, i64 7512
  br label %46

46:                                               ; preds = %46, %42
  %47 = phi i64 [ 0, %42 ], [ %64, %46 ]
  %48 = phi i8 [ 0, %42 ], [ %63, %46 ]
  %49 = trunc i64 %47 to i32
  %50 = shl i32 %49, 8
  %51 = and i32 %50, 512
  %52 = shl i32 %49, 7
  %53 = and i32 %52, 128
  %54 = or disjoint i32 %51, %53
  %55 = add i32 %43, %54
  %56 = load ptr, ptr %45, align 8
  %57 = tail call i32 %56(ptr noundef %44, i32 %55, i1 noundef zeroext true) #6
  %58 = and i32 %57, 1073741824
  %59 = icmp eq i32 %58, 0
  %60 = shl nuw nsw i64 1, %47
  %61 = trunc i64 %60 to i8
  %62 = select i1 %59, i8 0, i8 %61
  %63 = or i8 %62, %48
  %64 = add nuw nsw i64 %47, 1
  %65 = icmp eq i64 %64, 4
  br i1 %65, label %66, label %46, !llvm.loop !28

66:                                               ; preds = %46
  ret i8 %63
}